#include <math.h>
#include <stdio.h>
#include <stdlib.h>
#include <string.h>
#define LEN 100
#define ASCII 100
#define MAX_N 100
#define MAX_M 100
#define MAX 100
#define ASC 100
#define null 0
#define Len 100
#define shu 100
#define SUM 100
#define NUMBER 100
#define SIZE 100
#define X 100
#define Y 100
#define len 100
#define MAXN 100
#define MAXSIZE 100
#define maxrow 100
#define maxcol 100
#define num 100
#define mx 100
#define NUM 100
#define ROW 100
#define COL 100
#define SIZEE 100
#define MAX_LEN 100
#define LIU 100
#define maxsize 100
#define NUM 100
#define NO 100
#define Null 0
#define ID_DIGITS 100
#define INT_MAX 100
#define INT_MIN 100
#define FALSE 0
#define TRUE 1
int main()
{
	int A[100],C[26]={0},n,i,j,m,a=0,b;
	char B[100][100],c;
	scanf("%d",&n);
	for (i=0;i<n;i++)
	{
		scanf("%d%s",&A[i],B[i]);
	}
	for (i=0;i<n;i++)
	{
		for (j=0;j<strlen(B[i]);j++)
		{
			m=B[i][j];
			C[m-65]++;
		}
	}
	for (i=0;i<26;i++)
	{
		if (a<C[i])
		{
			a=C[i];
			b=i;
		}
	}
	printf("%c\n",b+65);
	printf("%d\n",a);
	c=b+65;
	for (i=0;i<n;i++)
	{
		for (j=0;j<strlen(B[i]);j++)
		{
			if (B[i][j]==c)
			{
				printf("%d\n",A[i]);
			}
		}
	}


	return 0;
}
